ccopy_reg
_reconstructor
p0
(cnetworkx.classes.graph
Graph
p1
c__builtin__
object
p2
Ntp3
Rp4
(dp5
S'node'
p6
(dp7
cdjango.db.models.base
model_unpickle
p8
(cstudent.models
Wish
p9
(lp10
cdjango.db.models.base
simple_class_factory
p11
tp12
Rp13
(dp14
S'student_id'
p15
I214
sS'_state'
p16
g0
(cdjango.db.models.base
ModelState
p17
g2
Ntp18
Rp19
(dp20
S'adding'
p21
I00
sS'db'
p22
S'default'
p23
sbsS'id'
p24
I512
sS'wish_date'
p25
cdatetime
datetime
p26
(S'\x07\xdc\x07\x0c\x0c\x0b(\x0b\xaa\x9d'
p27
cdjango.utils.timezone
UTC
p28
(tRp29
tp30
Rp31
sb(dp32
sg8
(g9
(lp33
g11
tp34
Rp35
(dp36
g15
I205
sg16
g0
(g17
g2
Ntp37
Rp38
(dp39
g21
I00
sg22
g23
sbsg24
I514
sg25
g26
(S'\x07\xdc\x07\x0c\x0c\x0b(\x0e\xb46'
p40
g29
tp41
Rp42
sb(dp43
sg8
(g9
(lp44
g11
tp45
Rp46
(dp47
g15
I502
sg16
g0
(g17
g2
Ntp48
Rp49
(dp50
g21
I00
sg22
g23
sbsg24
I517
sg25
g26
(S'\x07\xdc\x07\x0c\x0c\x0b)\x03SE'
p51
g29
tp52
Rp53
sb(dp54
sg8
(g9
(lp55
g11
tp56
Rp57
(dp58
g15
I272
sg16
g0
(g17
g2
Ntp59
Rp60
(dp61
g21
I00
sg22
g23
sbsg24
I518
sg25
g26
(S'\x07\xdc\x07\x0c\x0c\x0b)\x04/,'
p62
g29
tp63
Rp64
sb(dp65
sg8
(g9
(lp66
g11
tp67
Rp68
(dp69
g15
I243
sg16
g0
(g17
g2
Ntp70
Rp71
(dp72
g21
I00
sg22
g23
sbsg24
I519
sg25
g26
(S'\x07\xdc\x07\x0c\x0c\x0b)\x05\xe7P'
p73
g29
tp74
Rp75
sb(dp76
sg8
(g9
(lp77
g11
tp78
Rp79
(dp80
g15
I158
sg16
g0
(g17
g2
Ntp81
Rp82
(dp83
g21
I00
sg22
g23
sbsg24
I521
sg25
g26
(S'\x07\xdc\x07\x0c\x0c\x0b)\t8\xcb'
p84
g29
tp85
Rp86
sb(dp87
sg8
(g9
(lp88
g11
tp89
Rp90
(dp91
g15
I380
sg16
g0
(g17
g2
Ntp92
Rp93
(dp94
g21
I00
sg22
g23
sbsg24
I528
sg25
g26
(S'\x07\xdc\x07\x0c\x0c\x0b*\x06\x88&'
p95
g29
tp96
Rp97
sb(dp98
sg8
(g9
(lp99
g11
tp100
Rp101
(dp102
g15
I140
sg16
g0
(g17
g2
Ntp103
Rp104
(dp105
g21
I00
sg22
g23
sbsg24
I529
sg25
g26
(S'\x07\xdc\x07\x0c\x0c\x0b*\x08\t\xa2'
p106
g29
tp107
Rp108
sb(dp109
sg8
(g9
(lp110
g11
tp111
Rp112
(dp113
g15
I68
sg16
g0
(g17
g2
Ntp114
Rp115
(dp116
g21
I00
sg22
g23
sbsg24
I532
sg25
g26
(S'\x07\xdc\x07\x0c\x0c\x0b*\x0c\xedX'
p117
g29
tp118
Rp119
sb(dp120
sg8
(g9
(lp121
g11
tp122
Rp123
(dp124
g15
I26
sg16
g0
(g17
g2
Ntp125
Rp126
(dp127
g21
I00
sg22
g23
sbsg24
I36
sg25
g26
(S'\x07\xdc\x07\x0c\x0c\n6\x04/\x15'
p128
g29
tp129
Rp130
sb(dp131
sg8
(g9
(lp132
g11
tp133
Rp134
(dp135
g15
I146
sg16
g0
(g17
g2
Ntp136
Rp137
(dp138
g21
I00
sg22
g23
sbsg24
I42
sg25
g26
(S'\x07\xdc\x07\x0c\x0c\n6\r\xc4\x84'
p139
g29
tp140
Rp141
sb(dp142
sg8
(g9
(lp143
g11
tp144
Rp145
(dp146
g15
I472
sg16
g0
(g17
g2
Ntp147
Rp148
(dp149
g21
I00
sg22
g23
sbsg24
I43
sg25
g26
(S'\x07\xdc\x07\x0c\x0c\n6\x0e\xe0\xe0'
p150
g29
tp151
Rp152
sb(dp153
sg8
(g9
(lp154
g11
tp155
Rp156
(dp157
g15
I345
sg16
g0
(g17
g2
Ntp158
Rp159
(dp160
g21
I00
sg22
g23
sbsg24
I45
sg25
g26
(S'\x07\xdc\x07\x0c\x0c\n7\x02\x97q'
p161
g29
tp162
Rp163
sb(dp164
sg8
(g9
(lp165
g11
tp166
Rp167
(dp168
g15
I179
sg16
g0
(g17
g2
Ntp169
Rp170
(dp171
g21
I00
sg22
g23
sbsg24
I48
sg25
g26
(S'\x07\xdc\x07\x0c\x0c\n7\x06\xf8\x9d'
p172
g29
tp173
Rp174
sb(dp175
sg8
(g9
(lp176
g11
tp177
Rp178
(dp179
g15
I204
sg16
g0
(g17
g2
Ntp180
Rp181
(dp182
g21
I00
sg22
g23
sbsg24
I49
sg25
g26
(S'\x07\xdc\x07\x0c\x0c\n7\x07\xcbT'
p183
g29
tp184
Rp185
sb(dp186
sg8
(g9
(lp187
g11
tp188
Rp189
(dp190
g15
I481
sg16
g0
(g17
g2
Ntp191
Rp192
(dp193
g21
I00
sg22
g23
sbsg24
I52
sg25
g26
(S'\x07\xdc\x07\x0c\x0c\n7\rpg'
p194
g29
tp195
Rp196
sb(dp197
sg8
(g9
(lp198
g11
tp199
Rp200
(dp201
g15
I25
sg16
g0
(g17
g2
Ntp202
Rp203
(dp204
g21
I00
sg22
g23
sbsg24
I53
sg25
g26
(S'\x07\xdc\x07\x0c\x0c\n7\x0e:5'
p205
g29
tp206
Rp207
sb(dp208
sg8
(g9
(lp209
g11
tp210
Rp211
(dp212
g15
I274
sg16
g0
(g17
g2
Ntp213
Rp214
(dp215
g21
I00
sg22
g23
sbsg24
I58
sg25
g26
(S'\x07\xdc\x07\x0c\x0c\n8\x0716'
p216
g29
tp217
Rp218
sb(dp219
sg8
(g9
(lp220
g11
tp221
Rp222
(dp223
g15
I497
sg16
g0
(g17
g2
Ntp224
Rp225
(dp226
g21
I00
sg22
g23
sbsg24
I61
sg25
g26
(S'\x07\xdc\x07\x0c\x0c\n8\x0cr6'
p227
g29
tp228
Rp229
sb(dp230
sg8
(g9
(lp231
g11
tp232
Rp233
(dp234
g15
I498
sg16
g0
(g17
g2
Ntp235
Rp236
(dp237
g21
I00
sg22
g23
sbsg24
I62
sg25
g26
(S'\x07\xdc\x07\x0c\x0c\n8\x0e~)'
p238
g29
tp239
Rp240
sb(dp241
sg8
(g9
(lp242
g11
tp243
Rp244
(dp245
g15
I195
sg16
g0
(g17
g2
Ntp246
Rp247
(dp248
g21
I00
sg22
g23
sbsg24
I63
sg25
g26
(S'\x07\xdc\x07\x0c\x0c\n9\x00bp'
p249
g29
tp250
Rp251
sb(dp252
sg8
(g9
(lp253
g11
tp254
Rp255
(dp256
g15
I270
sg16
g0
(g17
g2
Ntp257
Rp258
(dp259
g21
I00
sg22
g23
sbsg24
I64
sg25
g26
(S'\x07\xdc\x07\x0c\x0c\n9\x01\x82\x07'
p260
g29
tp261
Rp262
sb(dp263
sg8
(g9
(lp264
g11
tp265
Rp266
(dp267
g15
I364
sg16
g0
(g17
g2
Ntp268
Rp269
(dp270
g21
I00
sg22
g23
sbsg24
I65
sg25
g26
(S'\x07\xdc\x07\x0c\x0c\n9\x02L\x04'
p271
g29
tp272
Rp273
sb(dp274
sg8
(g9
(lp275
g11
tp276
Rp277
(dp278
g15
I464
sg16
g0
(g17
g2
Ntp279
Rp280
(dp281
g21
I00
sg22
g23
sbsg24
I66
sg25
g26
(S'\x07\xdc\x07\x0c\x0c\n9\x03\x86\x1b'
p282
g29
tp283
Rp284
sb(dp285
sg8
(g9
(lp286
g11
tp287
Rp288
(dp289
g15
I40
sg16
g0
(g17
g2
Ntp290
Rp291
(dp292
g21
I00
sg22
g23
sbsg24
I68
sg25
g26
(S'\x07\xdc\x07\x0c\x0c\n9\x06\x1d/'
p293
g29
tp294
Rp295
sb(dp296
sg8
(g9
(lp297
g11
tp298
Rp299
(dp300
g15
I521
sg16
g0
(g17
g2
Ntp301
Rp302
(dp303
g21
I00
sg22
g23
sbsg24
I69
sg25
g26
(S'\x07\xdc\x07\x0c\x0c\n9\x06\xe9#'
p304
g29
tp305
Rp306
sb(dp307
sg8
(g9
(lp308
g11
tp309
Rp310
(dp311
g15
I469
sg16
g0
(g17
g2
Ntp312
Rp313
(dp314
g21
I00
sg22
g23
sbsg24
I72
sg25
g26
(S'\x07\xdc\x07\x0c\x0c\n9\n}|'
p315
g29
tp316
Rp317
sb(dp318
sg8
(g9
(lp319
g11
tp320
Rp321
(dp322
g15
I374
sg16
g0
(g17
g2
Ntp323
Rp324
(dp325
g21
I00
sg22
g23
sbsg24
I73
sg25
g26
(S'\x07\xdc\x07\x0c\x0c\n9\x0b\xfe^'
p326
g29
tp327
Rp328
sb(dp329
sg8
(g9
(lp330
g11
tp331
Rp332
(dp333
g15
I31
sg16
g0
(g17
g2
Ntp334
Rp335
(dp336
g21
I00
sg22
g23
sbsg24
I74
sg25
g26
(S'\x07\xdc\x07\x0c\x0c\n9\x0c\xee\xc4'
p337
g29
tp338
Rp339
sb(dp340
sg8
(g9
(lp341
g11
tp342
Rp343
(dp344
g15
I344
sg16
g0
(g17
g2
Ntp345
Rp346
(dp347
g21
I00
sg22
g23
sbsg24
I75
sg25
g26
(S'\x07\xdc\x07\x0c\x0c\n9\x0e\x8a\x0b'
p348
g29
tp349
Rp350
sb(dp351
sg8
(g9
(lp352
g11
tp353
Rp354
(dp355
g15
I455
sg16
g0
(g17
g2
Ntp356
Rp357
(dp358
g21
I00
sg22
g23
sbsg24
I77
sg25
g26
(S'\x07\xdc\x07\x0c\x0c\n:\x02y\xad'
p359
g29
tp360
Rp361
sb(dp362
sg8
(g9
(lp363
g11
tp364
Rp365
(dp366
g15
I197
sg16
g0
(g17
g2
Ntp367
Rp368
(dp369
g21
I00
sg22
g23
sbsg24
I80
sg25
g26
(S'\x07\xdc\x07\x0c\x0c\n:\x07+\xa5'
p370
g29
tp371
Rp372
sb(dp373
sg8
(g9
(lp374
g11
tp375
Rp376
(dp377
g15
I199
sg16
g0
(g17
g2
Ntp378
Rp379
(dp380
g21
I00
sg22
g23
sbsg24
I82
sg25
g26
(S'\x07\xdc\x07\x0c\x0c\n:\t\xc5w'
p381
g29
tp382
Rp383
sb(dp384
sg8
(g9
(lp385
g11
tp386
Rp387
(dp388
g15
I343
sg16
g0
(g17
g2
Ntp389
Rp390
(dp391
g21
I00
sg22
g23
sbsg24
I86
sg25
g26
(S'\x07\xdc\x07\x0c\x0c\n;\x01\xe7\xec'
p392
g29
tp393
Rp394
sb(dp395
sg8
(g9
(lp396
g11
tp397
Rp398
(dp399
g15
I79
sg16
g0
(g17
g2
Ntp400
Rp401
(dp402
g21
I00
sg22
g23
sbsg24
I87
sg25
g26
(S'\x07\xdc\x07\x0c\x0c\n;\x02\xaf\xc3'
p403
g29
tp404
Rp405
sb(dp406
sg8
(g9
(lp407
g11
tp408
Rp409
(dp410
g15
I442
sg16
g0
(g17
g2
Ntp411
Rp412
(dp413
g21
I00
sg22
g23
sbsg24
I88
sg25
g26
(S'\x07\xdc\x07\x0c\x0c\n;\x03\xc9\xfb'
p414
g29
tp415
Rp416
sb(dp417
sg8
(g9
(lp418
g11
tp419
Rp420
(dp421
g15
I366
sg16
g0
(g17
g2
Ntp422
Rp423
(dp424
g21
I00
sg22
g23
sbsg24
I91
sg25
g26
(S'\x07\xdc\x07\x0c\x0c\n;\x07*l'
p425
g29
tp426
Rp427
sb(dp428
sg8
(g9
(lp429
g11
tp430
Rp431
(dp432
g15
I145
sg16
g0
(g17
g2
Ntp433
Rp434
(dp435
g21
I00
sg22
g23
sbsg24
I93
sg25
g26
(S'\x07\xdc\x07\x0c\x0c\n;\n\xbe\xb8'
p436
g29
tp437
Rp438
sb(dp439
sg8
(g9
(lp440
g11
tp441
Rp442
(dp443
g15
I83
sg16
g0
(g17
g2
Ntp444
Rp445
(dp446
g21
I00
sg22
g23
sbsg24
I94
sg25
g26
(S'\x07\xdc\x07\x0c\x0c\n;\x0c\xc7\x0c'
p447
g29
tp448
Rp449
sb(dp450
sg8
(g9
(lp451
g11
tp452
Rp453
(dp454
g15
I50
sg16
g0
(g17
g2
Ntp455
Rp456
(dp457
g21
I00
sg22
g23
sbsg24
I98
sg25
g26
(S'\x07\xdc\x07\x0c\x0c\x0b\x00\x04\xf5\xde'
p458
g29
tp459
Rp460
sb(dp461
sg8
(g9
(lp462
g11
tp463
Rp464
(dp465
g15
I507
sg16
g0
(g17
g2
Ntp466
Rp467
(dp468
g21
I00
sg22
g23
sbsg24
I101
sg25
g26
(S'\x07\xdc\x07\x0c\x0c\x0b\x00\t\xa5i'
p469
g29
tp470
Rp471
sb(dp472
sg8
(g9
(lp473
g11
tp474
Rp475
(dp476
g15
I250
sg16
g0
(g17
g2
Ntp477
Rp478
(dp479
g21
I00
sg22
g23
sbsg24
I102
sg25
g26
(S'\x07\xdc\x07\x0c\x0c\x0b\x00\n\x87\xfd'
p480
g29
tp481
Rp482
sb(dp483
sg8
(g9
(lp484
g11
tp485
Rp486
(dp487
g15
I405
sg16
g0
(g17
g2
Ntp488
Rp489
(dp490
g21
I00
sg22
g23
sbsg24
I103
sg25
g26
(S'\x07\xdc\x07\x0c\x0c\x0b\x00\x0b\xf7%'
p491
g29
tp492
Rp493
sb(dp494
sg8
(g9
(lp495
g11
tp496
Rp497
(dp498
g15
I377
sg16
g0
(g17
g2
Ntp499
Rp500
(dp501
g21
I00
sg22
g23
sbsg24
I105
sg25
g26
(S'\x07\xdc\x07\x0c\x0c\x0b\x01\x00-\x8e'
p502
g29
tp503
Rp504
sb(dp505
sg8
(g9
(lp506
g11
tp507
Rp508
(dp509
g15
I213
sg16
g0
(g17
g2
Ntp510
Rp511
(dp512
g21
I00
sg22
g23
sbsg24
I106
sg25
g26
(S'\x07\xdc\x07\x0c\x0c\x0b\x01\x00\xfe\xa0'
p513
g29
tp514
Rp515
sb(dp516
sg8
(g9
(lp517
g11
tp518
Rp519
(dp520
g15
I178
sg16
g0
(g17
g2
Ntp521
Rp522
(dp523
g21
I00
sg22
g23
sbsg24
I108
sg25
g26
(S'\x07\xdc\x07\x0c\x0c\x0b\x01\x04\xa1O'
p524
g29
tp525
Rp526
sb(dp527
sg8
(g9
(lp528
g11
tp529
Rp530
(dp531
g15
I63
sg16
g0
(g17
g2
Ntp532
Rp533
(dp534
g21
I00
sg22
g23
sbsg24
I111
sg25
g26
(S'\x07\xdc\x07\x0c\x0c\x0b\x01\x08\x9e\xe7'
p535
g29
tp536
Rp537
sb(dp538
sg8
(g9
(lp539
g11
tp540
Rp541
(dp542
g15
I36
sg16
g0
(g17
g2
Ntp543
Rp544
(dp545
g21
I00
sg22
g23
sbsg24
I114
sg25
g26
(S"\x07\xdc\x07\x0c\x0c\x0b\x01\x0e'\xd4"
p546
g29
tp547
Rp548
sb(dp549
sg8
(g9
(lp550
g11
tp551
Rp552
(dp553
g15
I399
sg16
g0
(g17
g2
Ntp554
Rp555
(dp556
g21
I00
sg22
g23
sbsg24
I119
sg25
g26
(S'\x07\xdc\x07\x0c\x0c\x0b\x02\x05\x95\xe0'
p557
g29
tp558
Rp559
sb(dp560
sg8
(g9
(lp561
g11
tp562
Rp563
(dp564
g15
I333
sg16
g0
(g17
g2
Ntp565
Rp566
(dp567
g21
I00
sg22
g23
sbsg24
I120
sg25
g26
(S'\x07\xdc\x07\x0c\x0c\x0b\x02\x07\xa5;'
p568
g29
tp569
Rp570
sb(dp571
sg8
(g9
(lp572
g11
tp573
Rp574
(dp575
g15
I102
sg16
g0
(g17
g2
Ntp576
Rp577
(dp578
g21
I00
sg22
g23
sbsg24
I121
sg25
g26
(S'\x07\xdc\x07\x0c\x0c\x0b\x02\t\xc6\x97'
p579
g29
tp580
Rp581
sb(dp582
sg8
(g9
(lp583
g11
tp584
Rp585
(dp586
g15
I423
sg16
g0
(g17
g2
Ntp587
Rp588
(dp589
g21
I00
sg22
g23
sbsg24
I124
sg25
g26
(S'\x07\xdc\x07\x0c\x0c\x0b\x02\x0e}\x83'
p590
g29
tp591
Rp592
sb(dp593
sg8
(g9
(lp594
g11
tp595
Rp596
(dp597
g15
I181
sg16
g0
(g17
g2
Ntp598
Rp599
(dp600
g21
I00
sg22
g23
sbsg24
I130
sg25
g26
(S'\x07\xdc\x07\x0c\x0c\x0b\x03\x08B\x8a'
p601
g29
tp602
Rp603
sb(dp604
sg8
(g9
(lp605
g11
tp606
Rp607
(dp608
g15
I202
sg16
g0
(g17
g2
Ntp609
Rp610
(dp611
g21
I00
sg22
g23
sbsg24
I131
sg25
g26
(S'\x07\xdc\x07\x0c\x0c\x0b\x03\t\x0b\xb9'
p612
g29
tp613
Rp614
sb(dp615
sg8
(g9
(lp616
g11
tp617
Rp618
(dp619
g15
I172
sg16
g0
(g17
g2
Ntp620
Rp621
(dp622
g21
I00
sg22
g23
sbsg24
I132
sg25
g26
(S'\x07\xdc\x07\x0c\x0c\x0b\x03\n/\xb3'
p623
g29
tp624
Rp625
sb(dp626
sg8
(g9
(lp627
g11
tp628
Rp629
(dp630
g15
I496
sg16
g0
(g17
g2
Ntp631
Rp632
(dp633
g21
I00
sg22
g23
sbsg24
I133
sg25
g26
(S'\x07\xdc\x07\x0c\x0c\x0b\x03\n\xf7\x89'
p634
g29
tp635
Rp636
sb(dp637
sg8
(g9
(lp638
g11
tp639
Rp640
(dp641
g15
I507
sg16
g0
(g17
g2
Ntp642
Rp643
(dp644
g21
I00
sg22
g23
sbsg24
I136
sg25
g26
(S'\x07\xdc\x07\x0c\x0c\x0b\x04\x01\x19\xa5'
p645
g29
tp646
Rp647
sb(dp648
sg8
(g9
(lp649
g11
tp650
Rp651
(dp652
g15
I319
sg16
g0
(g17
g2
Ntp653
Rp654
(dp655
g21
I00
sg22
g23
sbsg24
I137
sg25
g26
(S'\x07\xdc\x07\x0c\x0c\x0b\x04\x01\xdef'
p656
g29
tp657
Rp658
sb(dp659
sg8
(g9
(lp660
g11
tp661
Rp662
(dp663
g15
I372
sg16
g0
(g17
g2
Ntp664
Rp665
(dp666
g21
I00
sg22
g23
sbsg24
I138
sg25
g26
(S'\x07\xdc\x07\x0c\x0c\x0b\x04\x03\xac\xdf'
p667
g29
tp668
Rp669
sb(dp670
sg8
(g9
(lp671
g11
tp672
Rp673
(dp674
g15
I396
sg16
g0
(g17
g2
Ntp675
Rp676
(dp677
g21
I00
sg22
g23
sbsg24
I139
sg25
g26
(S'\x07\xdc\x07\x0c\x0c\x0b\x04\x04xQ'
p678
g29
tp679
Rp680
sb(dp681
sg8
(g9
(lp682
g11
tp683
Rp684
(dp685
g15
I435
sg16
g0
(g17
g2
Ntp686
Rp687
(dp688
g21
I00
sg22
g23
sbsg24
I140
sg25
g26
(S'\x07\xdc\x07\x0c\x0c\x0b\x04\x05\x98P'
p689
g29
tp690
Rp691
sb(dp692
sg8
(g9
(lp693
g11
tp694
Rp695
(dp696
g15
I252
sg16
g0
(g17
g2
Ntp697
Rp698
(dp699
g21
I00
sg22
g23
sbsg24
I141
sg25
g26
(S'\x07\xdc\x07\x0c\x0c\x0b\x04\x06t;'
p700
g29
tp701
Rp702
sb(dp703
sg8
(g9
(lp704
g11
tp705
Rp706
(dp707
g15
I107
sg16
g0
(g17
g2
Ntp708
Rp709
(dp710
g21
I00
sg22
g23
sbsg24
I142
sg25
g26
(S'\x07\xdc\x07\x0c\x0c\x0b\x04\x07\x95\x10'
p711
g29
tp712
Rp713
sb(dp714
sg8
(g9
(lp715
g11
tp716
Rp717
(dp718
g15
I161
sg16
g0
(g17
g2
Ntp719
Rp720
(dp721
g21
I00
sg22
g23
sbsg24
I145
sg25
g26
(S'\x07\xdc\x07\x0c\x0c\x0b\x04\nf\x91'
p722
g29
tp723
Rp724
sb(dp725
sg8
(g9
(lp726
g11
tp727
Rp728
(dp729
g15
I82
sg16
g0
(g17
g2
Ntp730
Rp731
(dp732
g21
I00
sg22
g23
sbsg24
I147
sg25
g26
(S'\x07\xdc\x07\x0c\x0c\x0b\x04\x0c_:'
p733
g29
tp734
Rp735
sb(dp736
sg8
(g9
(lp737
g11
tp738
Rp739
(dp740
g15
I35
sg16
g0
(g17
g2
Ntp741
Rp742
(dp743
g21
I00
sg22
g23
sbsg24
I152
sg25
g26
(S'\x07\xdc\x07\x0c\x0c\x0b\x05\x048\xbc'
p744
g29
tp745
Rp746
sb(dp747
sg8
(g9
(lp748
g11
tp749
Rp750
(dp751
g15
I70
sg16
g0
(g17
g2
Ntp752
Rp753
(dp754
g21
I00
sg22
g23
sbsg24
I153
sg25
g26
(S'\x07\xdc\x07\x0c\x0c\x0b\x05\x05\xc8\x16'
p755
g29
tp756
Rp757
sb(dp758
sg8
(g9
(lp759
g11
tp760
Rp761
(dp762
g15
I198
sg16
g0
(g17
g2
Ntp763
Rp764
(dp765
g21
I00
sg22
g23
sbsg24
I154
sg25
g26
(S'\x07\xdc\x07\x0c\x0c\x0b\x05\x06\xcb\x07'
p766
g29
tp767
Rp768
sb(dp769
sg8
(g9
(lp770
g11
tp771
Rp772
(dp773
g15
I329
sg16
g0
(g17
g2
Ntp774
Rp775
(dp776
g21
I00
sg22
g23
sbsg24
I155
sg25
g26
(S'\x07\xdc\x07\x0c\x0c\x0b\x05\x08f\xe2'
p777
g29
tp778
Rp779
sb(dp780
sg8
(g9
(lp781
g11
tp782
Rp783
(dp784
g15
I69
sg16
g0
(g17
g2
Ntp785
Rp786
(dp787
g21
I00
sg22
g23
sbsg24
I156
sg25
g26
(S'\x07\xdc\x07\x0c\x0c\x0b\x05\t\x84\x89'
p788
g29
tp789
Rp790
sb(dp791
sg8
(g9
(lp792
g11
tp793
Rp794
(dp795
g15
I65
sg16
g0
(g17
g2
Ntp796
Rp797
(dp798
g21
I00
sg22
g23
sbsg24
I160
sg25
g26
(S'\x07\xdc\x07\x0c\x0c\x0b\x06\x00i\x1c'
p799
g29
tp800
Rp801
sb(dp802
sg8
(g9
(lp803
g11
tp804
Rp805
(dp806
g15
I396
sg16
g0
(g17
g2
Ntp807
Rp808
(dp809
g21
I00
sg22
g23
sbsg24
I166
sg25
g26
(S'\x07\xdc\x07\x0c\x0c\x0b\x06\nO\x8f'
p810
g29
tp811
Rp812
sb(dp813
sg8
(g9
(lp814
g11
tp815
Rp816
(dp817
g15
I278
sg16
g0
(g17
g2
Ntp818
Rp819
(dp820
g21
I00
sg22
g23
sbsg24
I167
sg25
g26
(S'\x07\xdc\x07\x0c\x0c\x0b\x06\x0bd\xe2'
p821
g29
tp822
Rp823
sb(dp824
sg8
(g9
(lp825
g11
tp826
Rp827
(dp828
g15
I377
sg16
g0
(g17
g2
Ntp829
Rp830
(dp831
g21
I00
sg22
g23
sbsg24
I171
sg25
g26
(S'\x07\xdc\x07\x0c\x0c\x0b\x07\x036\n'
p832
g29
tp833
Rp834
sb(dp835
sg8
(g9
(lp836
g11
tp837
Rp838
(dp839
g15
I279
sg16
g0
(g17
g2
Ntp840
Rp841
(dp842
g21
I00
sg22
g23
sbsg24
I174
sg25
g26
(S'\x07\xdc\x07\x0c\x0c\x0b\x07\x07s\x1c'
p843
g29
tp844
Rp845
sb(dp846
sg8
(g9
(lp847
g11
tp848
Rp849
(dp850
g15
I324
sg16
g0
(g17
g2
Ntp851
Rp852
(dp853
g21
I00
sg22
g23
sbsg24
I184
sg25
g26
(S'\x07\xdc\x07\x0c\x0c\x0b\x08\x08\x03\xb6'
p854
g29
tp855
Rp856
sb(dp857
sg8
(g9
(lp858
g11
tp859
Rp860
(dp861
g15
I67
sg16
g0
(g17
g2
Ntp862
Rp863
(dp864
g21
I00
sg22
g23
sbsg24
I187
sg25
g26
(S'\x07\xdc\x07\x0c\x0c\x0b\x08\x0c,\x99'
p865
g29
tp866
Rp867
sb(dp868
sg8
(g9
(lp869
g11
tp870
Rp871
(dp872
g15
I321
sg16
g0
(g17
g2
Ntp873
Rp874
(dp875
g21
I00
sg22
g23
sbsg24
I189
sg25
g26
(S'\x07\xdc\x07\x0c\x0c\x0b\x08\x0eoQ'
p876
g29
tp877
Rp878
sb(dp879
sg8
(g9
(lp880
g11
tp881
Rp882
(dp883
g15
I66
sg16
g0
(g17
g2
Ntp884
Rp885
(dp886
g21
I00
sg22
g23
sbsg24
I192
sg25
g26
(S'\x07\xdc\x07\x0c\x0c\x0b\t\x03\xd1\xa0'
p887
g29
tp888
Rp889
sb(dp890
sg8
(g9
(lp891
g11
tp892
Rp893
(dp894
g15
I131
sg16
g0
(g17
g2
Ntp895
Rp896
(dp897
g21
I00
sg22
g23
sbsg24
I194
sg25
g26
(S'\x07\xdc\x07\x0c\x0c\x0b\t\x05\xf6\xf3'
p898
g29
tp899
Rp900
sb(dp901
sg8
(g9
(lp902
g11
tp903
Rp904
(dp905
g15
I484
sg16
g0
(g17
g2
Ntp906
Rp907
(dp908
g21
I00
sg22
g23
sbsg24
I210
sg25
g26
(S'\x07\xdc\x07\x0c\x0c\x0b\n\x0e\x9e\xea'
p909
g29
tp910
Rp911
sb(dp912
sg8
(g9
(lp913
g11
tp914
Rp915
(dp916
g15
I390
sg16
g0
(g17
g2
Ntp917
Rp918
(dp919
g21
I00
sg22
g23
sbsg24
I211
sg25
g26
(S'\x07\xdc\x07\x0c\x0c\x0b\x0b\x00\x1e\x9c'
p920
g29
tp921
Rp922
sb(dp923
sg8
(g9
(lp924
g11
tp925
Rp926
(dp927
g15
I228
sg16
g0
(g17
g2
Ntp928
Rp929
(dp930
g21
I00
sg22
g23
sbsg24
I214
sg25
g26
(S'\x07\xdc\x07\x0c\x0c\x0b\x0b\x03\x95\xb9'
p931
g29
tp932
Rp933
sb(dp934
sg8
(g9
(lp935
g11
tp936
Rp937
(dp938
g15
I422
sg16
g0
(g17
g2
Ntp939
Rp940
(dp941
g21
I00
sg22
g23
sbsg24
I220
sg25
g26
(S'\x07\xdc\x07\x0c\x0c\x0b\x0b\x0c\xcdB'
p942
g29
tp943
Rp944
sb(dp945
sg8
(g9
(lp946
g11
tp947
Rp948
(dp949
g15
I37
sg16
g0
(g17
g2
Ntp950
Rp951
(dp952
g21
I00
sg22
g23
sbsg24
I227
sg25
g26
(S'\x07\xdc\x07\x0c\x0c\x0b\x0c\tZ\x12'
p953
g29
tp954
Rp955
sb(dp956
sg8
(g9
(lp957
g11
tp958
Rp959
(dp960
g15
I385
sg16
g0
(g17
g2
Ntp961
Rp962
(dp963
g21
I00
sg22
g23
sbsg24
I228
sg25
g26
(S'\x07\xdc\x07\x0c\x0c\x0b\x0c\n\xb6\x98'
p964
g29
tp965
Rp966
sb(dp967
sg8
(g9
(lp968
g11
tp969
Rp970
(dp971
g15
I44
sg16
g0
(g17
g2
Ntp972
Rp973
(dp974
g21
I00
sg22
g23
sbsg24
I236
sg25
g26
(S'\x07\xdc\x07\x0c\x0c\x0b\r\x08\xae\x80'
p975
g29
tp976
Rp977
sb(dp978
sg8
(g9
(lp979
g11
tp980
Rp981
(dp982
g15
I51
sg16
g0
(g17
g2
Ntp983
Rp984
(dp985
g21
I00
sg22
g23
sbsg24
I237
sg25
g26
(S'\x07\xdc\x07\x0c\x0c\x0b\r\nF\x92'
p986
g29
tp987
Rp988
sb(dp989
sg8
(g9
(lp990
g11
tp991
Rp992
(dp993
g15
I268
sg16
g0
(g17
g2
Ntp994
Rp995
(dp996
g21
I00
sg22
g23
sbsg24
I238
sg25
g26
(S'\x07\xdc\x07\x0c\x0c\x0b\r\x0b\x0cg'
p997
g29
tp998
Rp999
sb(dp1000
sg8
(g9
(lp1001
g11
tp1002
Rp1003
(dp1004
g15
I230
sg16
g0
(g17
g2
Ntp1005
Rp1006
(dp1007
g21
I00
sg22
g23
sbsg24
I239
sg25
g26
(S'\x07\xdc\x07\x0c\x0c\x0b\r\x0b\xcd\xdb'
p1008
g29
tp1009
Rp1010
sb(dp1011
sg8
(g9
(lp1012
g11
tp1013
Rp1014
(dp1015
g15
I380
sg16
g0
(g17
g2
Ntp1016
Rp1017
(dp1018
g21
I00
sg22
g23
sbsg24
I240
sg25
g26
(S'\x07\xdc\x07\x0c\x0c\x0b\r\r*\xec'
p1019
g29
tp1020
Rp1021
sb(dp1022
sg8
(g9
(lp1023
g11
tp1024
Rp1025
(dp1026
g15
I43
sg16
g0
(g17
g2
Ntp1027
Rp1028
(dp1029
g21
I00
sg22
g23
sbsg24
I241
sg25
g26
(S'\x07\xdc\x07\x0c\x0c\x0b\r\r\xef\x82'
p1030
g29
tp1031
Rp1032
sb(dp1033
sg8
(g9
(lp1034
g11
tp1035
Rp1036
(dp1037
g15
I362
sg16
g0
(g17
g2
Ntp1038
Rp1039
(dp1040
g21
I00
sg22
g23
sbsg24
I245
sg25
g26
(S'\x07\xdc\x07\x0c\x0c\x0b\x0e\x05\x98g'
p1041
g29
tp1042
Rp1043
sb(dp1044
sg8
(g9
(lp1045
g11
tp1046
Rp1047
(dp1048
g15
I50
sg16
g0
(g17
g2
Ntp1049
Rp1050
(dp1051
g21
I00
sg22
g23
sbsg24
I250
sg25
g26
(S'\x07\xdc\x07\x0c\x0c\x0b\x0e\ri\xe7'
p1052
g29
tp1053
Rp1054
sb(dp1055
sg8
(g9
(lp1056
g11
tp1057
Rp1058
(dp1059
g15
I178
sg16
g0
(g17
g2
Ntp1060
Rp1061
(dp1062
g21
I00
sg22
g23
sbsg24
I251
sg25
g26
(S'\x07\xdc\x07\x0c\x0c\x0b\x0e\x0eE\xe7'
p1063
g29
tp1064
Rp1065
sb(dp1066
sg8
(g9
(lp1067
g11
tp1068
Rp1069
(dp1070
g15
I401
sg16
g0
(g17
g2
Ntp1071
Rp1072
(dp1073
g21
I00
sg22
g23
sbsg24
I253
sg25
g26
(S'\x07\xdc\x07\x0c\x0c\x0b\x0f\x01;\xad'
p1074
g29
tp1075
Rp1076
sb(dp1077
sg8
(g9
(lp1078
g11
tp1079
Rp1080
(dp1081
g15
I31
sg16
g0
(g17
g2
Ntp1082
Rp1083
(dp1084
g21
I00
sg22
g23
sbsg24
I255
sg25
g26
(S'\x07\xdc\x07\x0c\x0c\x0b\x0f\x03zV'
p1085
g29
tp1086
Rp1087
sb(dp1088
sg8
(g9
(lp1089
g11
tp1090
Rp1091
(dp1092
g15
I289
sg16
g0
(g17
g2
Ntp1093
Rp1094
(dp1095
g21
I00
sg22
g23
sbsg24
I257
sg25
g26
(S'\x07\xdc\x07\x0c\x0c\x0b\x0f\x05\xb3J'
p1096
g29
tp1097
Rp1098
sb(dp1099
sg8
(g9
(lp1100
g11
tp1101
Rp1102
(dp1103
g15
I44
sg16
g0
(g17
g2
Ntp1104
Rp1105
(dp1106
g21
I00
sg22
g23
sbsg24
I258
sg25
g26
(S'\x07\xdc\x07\x0c\x0c\x0b\x0f\x07/?'
p1107
g29
tp1108
Rp1109
sb(dp1110
sg8
(g9
(lp1111
g11
tp1112
Rp1113
(dp1114
g15
I240
sg16
g0
(g17
g2
Ntp1115
Rp1116
(dp1117
g21
I00
sg22
g23
sbsg24
I261
sg25
g26
(S'\x07\xdc\x07\x0c\x0c\x0b\x0f\n\xfd\x81'
p1118
g29
tp1119
Rp1120
sb(dp1121
sg8
(g9
(lp1122
g11
tp1123
Rp1124
(dp1125
g15
I211
sg16
g0
(g17
g2
Ntp1126
Rp1127
(dp1128
g21
I00
sg22
g23
sbsg24
I262
sg25
g26
(S'\x07\xdc\x07\x0c\x0c\x0b\x0f\x0b\xd9\xd3'
p1129
g29
tp1130
Rp1131
sb(dp1132
sg8
(g9
(lp1133
g11
tp1134
Rp1135
(dp1136
g15
I393
sg16
g0
(g17
g2
Ntp1137
Rp1138
(dp1139
g21
I00
sg22
g23
sbsg24
I266
sg25
g26
(S'\x07\xdc\x07\x0c\x0c\x0b\x10\x03\x1d\xb6'
p1140
g29
tp1141
Rp1142
sb(dp1143
sg8
(g9
(lp1144
g11
tp1145
Rp1146
(dp1147
g15
I109
sg16
g0
(g17
g2
Ntp1148
Rp1149
(dp1150
g21
I00
sg22
g23
sbsg24
I267
sg25
g26
(S'\x07\xdc\x07\x0c\x0c\x0b\x10\x03\xfd\xa1'
p1151
g29
tp1152
Rp1153
sb(dp1154
sg8
(g9
(lp1155
g11
tp1156
Rp1157
(dp1158
g15
I173
sg16
g0
(g17
g2
Ntp1159
Rp1160
(dp1161
g21
I00
sg22
g23
sbsg24
I269
sg25
g26
(S'\x07\xdc\x07\x0c\x0c\x0b\x10\x07\xa8e'
p1162
g29
tp1163
Rp1164
sb(dp1165
sg8
(g9
(lp1166
g11
tp1167
Rp1168
(dp1169
g15
I506
sg16
g0
(g17
g2
Ntp1170
Rp1171
(dp1172
g21
I00
sg22
g23
sbsg24
I270
sg25
g26
(S'\x07\xdc\x07\x0c\x0c\x0b\x10\x08\xdc\xde'
p1173
g29
tp1174
Rp1175
sb(dp1176
sg8
(g9
(lp1177
g11
tp1178
Rp1179
(dp1180
g15
I348
sg16
g0
(g17
g2
Ntp1181
Rp1182
(dp1183
g21
I00
sg22
g23
sbsg24
I272
sg25
g26
(S'\x07\xdc\x07\x0c\x0c\x0b\x10\x0bJ\x91'
p1184
g29
tp1185
Rp1186
sb(dp1187
sg8
(g9
(lp1188
g11
tp1189
Rp1190
(dp1191
g15
I510
sg16
g0
(g17
g2
Ntp1192
Rp1193
(dp1194
g21
I00
sg22
g23
sbsg24
I276
sg25
g26
(S'\x07\xdc\x07\x0c\x0c\x0b\x11\x02\xc3,'
p1195
g29
tp1196
Rp1197
sb(dp1198
sg8
(g9
(lp1199
g11
tp1200
Rp1201
(dp1202
g15
I293
sg16
g0
(g17
g2
Ntp1203
Rp1204
(dp1205
g21
I00
sg22
g23
sbsg24
I277
sg25
g26
(S'\x07\xdc\x07\x0c\x0c\x0b\x11\x03\xe70'
p1206
g29
tp1207
Rp1208
sb(dp1209
sg8
(g9
(lp1210
g11
tp1211
Rp1212
(dp1213
g15
I466
sg16
g0
(g17
g2
Ntp1214
Rp1215
(dp1216
g21
I00
sg22
g23
sbsg24
I280
sg25
g26
(S'\x07\xdc\x07\x0c\x0c\x0b\x11\x08\x85\xe4'
p1217
g29
tp1218
Rp1219
sb(dp1220
sg8
(g9
(lp1221
g11
tp1222
Rp1223
(dp1224
g15
I282
sg16
g0
(g17
g2
Ntp1225
Rp1226
(dp1227
g21
I00
sg22
g23
sbsg24
I281
sg25
g26
(S'\x07\xdc\x07\x0c\x0c\x0b\x11\tg\x0c'
p1228
g29
tp1229
Rp1230
sb(dp1231
sg8
(g9
(lp1232
g11
tp1233
Rp1234
(dp1235
g15
I302
sg16
g0
(g17
g2
Ntp1236
Rp1237
(dp1238
g21
I00
sg22
g23
sbsg24
I282
sg25
g26
(S'\x07\xdc\x07\x0c\x0c\x0b\x11\n2\xa1'
p1239
g29
tp1240
Rp1241
sb(dp1242
sg8
(g9
(lp1243
g11
tp1244
Rp1245
(dp1246
g15
I372
sg16
g0
(g17
g2
Ntp1247
Rp1248
(dp1249
g21
I00
sg22
g23
sbsg24
I285
sg25
g26
(S'\x07\xdc\x07\x0c\x0c\x0b\x11\x0f\x00\xb8'
p1250
g29
tp1251
Rp1252
sb(dp1253
sg8
(g9
(lp1254
g11
tp1255
Rp1256
(dp1257
g15
I160
sg16
g0
(g17
g2
Ntp1258
Rp1259
(dp1260
g21
I00
sg22
g23
sbsg24
I286
sg25
g26
(S'\x07\xdc\x07\x0c\x0c\x0b\x12\x00\xd5\xa0'
p1261
g29
tp1262
Rp1263
sb(dp1264
sg8
(g9
(lp1265
g11
tp1266
Rp1267
(dp1268
g15
I311
sg16
g0
(g17
g2
Ntp1269
Rp1270
(dp1271
g21
I00
sg22
g23
sbsg24
I287
sg25
g26
(S'\x07\xdc\x07\x0c\x0c\x0b\x12\x01\xceo'
p1272
g29
tp1273
Rp1274
sb(dp1275
sg8
(g9
(lp1276
g11
tp1277
Rp1278
(dp1279
g15
I338
sg16
g0
(g17
g2
Ntp1280
Rp1281
(dp1282
g21
I00
sg22
g23
sbsg24
I293
sg25
g26
(S'\x07\xdc\x07\x0c\x0c\x0b\x12\n\x1b^'
p1283
g29
tp1284
Rp1285
sb(dp1286
sg8
(g9
(lp1287
g11
tp1288
Rp1289
(dp1290
g15
I95
sg16
g0
(g17
g2
Ntp1291
Rp1292
(dp1293
g21
I00
sg22
g23
sbsg24
I300
sg25
g26
(S'\x07\xdc\x07\x0c\x0c\x0b\x13\x05N\x86'
p1294
g29
tp1295
Rp1296
sb(dp1297
sg8
(g9
(lp1298
g11
tp1299
Rp1300
(dp1301
g15
I282
sg16
g0
(g17
g2
Ntp1302
Rp1303
(dp1304
g21
I00
sg22
g23
sbsg24
I303
sg25
g26
(S'\x07\xdc\x07\x0c\x0c\x0b\x13\x0c)\x01'
p1305
g29
tp1306
Rp1307
sb(dp1308
sg8
(g9
(lp1309
g11
tp1310
Rp1311
(dp1312
g15
I329
sg16
g0
(g17
g2
Ntp1313
Rp1314
(dp1315
g21
I00
sg22
g23
sbsg24
I307
sg25
g26
(S'\x07\xdc\x07\x0c\x0c\x0b\x14\x02X\xbd'
p1316
g29
tp1317
Rp1318
sb(dp1319
sg8
(g9
(lp1320
g11
tp1321
Rp1322
(dp1323
g15
I189
sg16
g0
(g17
g2
Ntp1324
Rp1325
(dp1326
g21
I00
sg22
g23
sbsg24
I309
sg25
g26
(S'\x07\xdc\x07\x0c\x0c\x0b\x14\x04IE'
p1327
g29
tp1328
Rp1329
sb(dp1330
sg8
(g9
(lp1331
g11
tp1332
Rp1333
(dp1334
g15
I82
sg16
g0
(g17
g2
Ntp1335
Rp1336
(dp1337
g21
I00
sg22
g23
sbsg24
I310
sg25
g26
(S"\x07\xdc\x07\x0c\x0c\x0b\x14\x05'$"
p1338
g29
tp1339
Rp1340
sb(dp1341
sg8
(g9
(lp1342
g11
tp1343
Rp1344
(dp1345
g15
I224
sg16
g0
(g17
g2
Ntp1346
Rp1347
(dp1348
g21
I00
sg22
g23
sbsg24
I315
sg25
g26
(S'\x07\xdc\x07\x0c\x0c\x0b\x14\r\xf2\xcb'
p1349
g29
tp1350
Rp1351
sb(dp1352
sg8
(g9
(lp1353
g11
tp1354
Rp1355
(dp1356
g15
I32
sg16
g0
(g17
g2
Ntp1357
Rp1358
(dp1359
g21
I00
sg22
g23
sbsg24
I317
sg25
g26
(S'\x07\xdc\x07\x0c\x0c\x0b\x15\x01\xb4\xe6'
p1360
g29
tp1361
Rp1362
sb(dp1363
sg8
(g9
(lp1364
g11
tp1365
Rp1366
(dp1367
g15
I73
sg16
g0
(g17
g2
Ntp1368
Rp1369
(dp1370
g21
I00
sg22
g23
sbsg24
I318
sg25
g26
(S'\x07\xdc\x07\x0c\x0c\x0b\x15\x02\xdc\x83'
p1371
g29
tp1372
Rp1373
sb(dp1374
sg8
(g9
(lp1375
g11
tp1376
Rp1377
(dp1378
g15
I423
sg16
g0
(g17
g2
Ntp1379
Rp1380
(dp1381
g21
I00
sg22
g23
sbsg24
I319
sg25
g26
(S'\x07\xdc\x07\x0c\x0c\x0b\x15\x04X\x7f'
p1382
g29
tp1383
Rp1384
sb(dp1385
sg8
(g9
(lp1386
g11
tp1387
Rp1388
(dp1389
g15
I165
sg16
g0
(g17
g2
Ntp1390
Rp1391
(dp1392
g21
I00
sg22
g23
sbsg24
I321
sg25
g26
(S'\x07\xdc\x07\x0c\x0c\x0b\x15\x06\x7fN'
p1393
g29
tp1394
Rp1395
sb(dp1396
sg8
(g9
(lp1397
g11
tp1398
Rp1399
(dp1400
g15
I71
sg16
g0
(g17
g2
Ntp1401
Rp1402
(dp1403
g21
I00
sg22
g23
sbsg24
I323
sg25
g26
(S'\x07\xdc\x07\x0c\x0c\x0b\x15\nq\xd7'
p1404
g29
tp1405
Rp1406
sb(dp1407
sg8
(g9
(lp1408
g11
tp1409
Rp1410
(dp1411
g15
I252
sg16
g0
(g17
g2
Ntp1412
Rp1413
(dp1414
g21
I00
sg22
g23
sbsg24
I324
sg25
g26
(S'\x07\xdc\x07\x0c\x0c\x0b\x15\x0bc\xc0'
p1415
g29
tp1416
Rp1417
sb(dp1418
sg8
(g9
(lp1419
g11
tp1420
Rp1421
(dp1422
g15
I196
sg16
g0
(g17
g2
Ntp1423
Rp1424
(dp1425
g21
I00
sg22
g23
sbsg24
I325
sg25
g26
(S'\x07\xdc\x07\x0c\x0c\x0b\x15\x0cz\xa7'
p1426
g29
tp1427
Rp1428
sb(dp1429
sg8
(g9
(lp1430
g11
tp1431
Rp1432
(dp1433
g15
I87
sg16
g0
(g17
g2
Ntp1434
Rp1435
(dp1436
g21
I00
sg22
g23
sbsg24
I327
sg25
g26
(S'\x07\xdc\x07\x0c\x0c\x0b\x16\x00\x19"'
p1437
g29
tp1438
Rp1439
sb(dp1440
sg8
(g9
(lp1441
g11
tp1442
Rp1443
(dp1444
g15
I302
sg16
g0
(g17
g2
Ntp1445
Rp1446
(dp1447
g21
I00
sg22
g23
sbsg24
I328
sg25
g26
(S'\x07\xdc\x07\x0c\x0c\x0b\x16\x01F\xa0'
p1448
g29
tp1449
Rp1450
sb(dp1451
sg8
(g9
(lp1452
g11
tp1453
Rp1454
(dp1455
g15
I326
sg16
g0
(g17
g2
Ntp1456
Rp1457
(dp1458
g21
I00
sg22
g23
sbsg24
I329
sg25
g26
(S'\x07\xdc\x07\x0c\x0c\x0b\x16\x028.'
p1459
g29
tp1460
Rp1461
sb(dp1462
sg8
(g9
(lp1463
g11
tp1464
Rp1465
(dp1466
g15
I461
sg16
g0
(g17
g2
Ntp1467
Rp1468
(dp1469
g21
I00
sg22
g23
sbsg24
I330
sg25
g26
(S'\x07\xdc\x07\x0c\x0c\x0b\x16\x03cc'
p1470
g29
tp1471
Rp1472
sb(dp1473
sg8
(g9
(lp1474
g11
tp1475
Rp1476
(dp1477
g15
I474
sg16
g0
(g17
g2
Ntp1478
Rp1479
(dp1480
g21
I00
sg22
g23
sbsg24
I333
sg25
g26
(S'\x07\xdc\x07\x0c\x0c\x0b\x16\x08v\x07'
p1481
g29
tp1482
Rp1483
sb(dp1484
sg8
(g9
(lp1485
g11
tp1486
Rp1487
(dp1488
g15
I356
sg16
g0
(g17
g2
Ntp1489
Rp1490
(dp1491
g21
I00
sg22
g23
sbsg24
I334
sg25
g26
(S'\x07\xdc\x07\x0c\x0c\x0b\x16\t<2'
p1492
g29
tp1493
Rp1494
sb(dp1495
sg8
(g9
(lp1496
g11
tp1497
Rp1498
(dp1499
g15
I479
sg16
g0
(g17
g2
Ntp1500
Rp1501
(dp1502
g21
I00
sg22
g23
sbsg24
I344
sg25
g26
(S'\x07\xdc\x07\x0c\x0c\x0b\x17\x0c\xcci'
p1503
g29
tp1504
Rp1505
sb(dp1506
sg8
(g9
(lp1507
g11
tp1508
Rp1509
(dp1510
g15
I475
sg16
g0
(g17
g2
Ntp1511
Rp1512
(dp1513
g21
I00
sg22
g23
sbsg24
I346
sg25
g26
(S'\x07\xdc\x07\x0c\x0c\x0b\x18\x01\x1c.'
p1514
g29
tp1515
Rp1516
sb(dp1517
sg8
(g9
(lp1518
g11
tp1519
Rp1520
(dp1521
g15
I146
sg16
g0
(g17
g2
Ntp1522
Rp1523
(dp1524
g21
I00
sg22
g23
sbsg24
I348
sg25
g26
(S'\x07\xdc\x07\x0c\x0c\x0b\x18\x04O\x86'
p1525
g29
tp1526
Rp1527
sb(dp1528
sg8
(g9
(lp1529
g11
tp1530
Rp1531
(dp1532
g15
I379
sg16
g0
(g17
g2
Ntp1533
Rp1534
(dp1535
g21
I00
sg22
g23
sbsg24
I351
sg25
g26
(S'\x07\xdc\x07\x0c\x0c\x0b\x18\x07\xed\xc2'
p1536
g29
tp1537
Rp1538
sb(dp1539
sg8
(g9
(lp1540
g11
tp1541
Rp1542
(dp1543
g15
I494
sg16
g0
(g17
g2
Ntp1544
Rp1545
(dp1546
g21
I00
sg22
g23
sbsg24
I352
sg25
g26
(S'\x07\xdc\x07\x0c\x0c\x0b\x18\tL\xa0'
p1547
g29
tp1548
Rp1549
sb(dp1550
sg8
(g9
(lp1551
g11
tp1552
Rp1553
(dp1554
g15
I288
sg16
g0
(g17
g2
Ntp1555
Rp1556
(dp1557
g21
I00
sg22
g23
sbsg24
I353
sg25
g26
(S'\x07\xdc\x07\x0c\x0c\x0b\x18\n&\xbb'
p1558
g29
tp1559
Rp1560
sb(dp1561
sg8
(g9
(lp1562
g11
tp1563
Rp1564
(dp1565
g15
I229
sg16
g0
(g17
g2
Ntp1566
Rp1567
(dp1568
g21
I00
sg22
g23
sbsg24
I357
sg25
g26
(S'\x07\xdc\x07\x0c\x0c\x0b\x19\x01f\x8e'
p1569
g29
tp1570
Rp1571
sb(dp1572
sg8
(g9
(lp1573
g11
tp1574
Rp1575
(dp1576
g15
I391
sg16
g0
(g17
g2
Ntp1577
Rp1578
(dp1579
g21
I00
sg22
g23
sbsg24
I358
sg25
g26
(S'\x07\xdc\x07\x0c\x0c\x0b\x19\x02\xcc/'
p1580
g29
tp1581
Rp1582
sb(dp1583
sg8
(g9
(lp1584
g11
tp1585
Rp1586
(dp1587
g15
I463
sg16
g0
(g17
g2
Ntp1588
Rp1589
(dp1590
g21
I00
sg22
g23
sbsg24
I361
sg25
g26
(S'\x07\xdc\x07\x0c\x0c\x0b\x19\x06\xa36'
p1591
g29
tp1592
Rp1593
sb(dp1594
sg8
(g9
(lp1595
g11
tp1596
Rp1597
(dp1598
g15
I445
sg16
g0
(g17
g2
Ntp1599
Rp1600
(dp1601
g21
I00
sg22
g23
sbsg24
I363
sg25
g26
(S'\x07\xdc\x07\x0c\x0c\x0b\x19\t\xecO'
p1602
g29
tp1603
Rp1604
sb(dp1605
sg8
(g9
(lp1606
g11
tp1607
Rp1608
(dp1609
g15
I218
sg16
g0
(g17
g2
Ntp1610
Rp1611
(dp1612
g21
I00
sg22
g23
sbsg24
I364
sg25
g26
(S'\x07\xdc\x07\x0c\x0c\x0b\x19\x0b\xb1-'
p1613
g29
tp1614
Rp1615
sb(dp1616
sg8
(g9
(lp1617
g11
tp1618
Rp1619
(dp1620
g15
I135
sg16
g0
(g17
g2
Ntp1621
Rp1622
(dp1623
g21
I00
sg22
g23
sbsg24
I365
sg25
g26
(S'\x07\xdc\x07\x0c\x0c\x0b\x19\x0c\xc2\xb2'
p1624
g29
tp1625
Rp1626
sb(dp1627
sg8
(g9
(lp1628
g11
tp1629
Rp1630
(dp1631
g15
I299
sg16
g0
(g17
g2
Ntp1632
Rp1633
(dp1634
g21
I00
sg22
g23
sbsg24
I369
sg25
g26
(S'\x07\xdc\x07\x0c\x0c\x0b\x1a\x04G?'
p1635
g29
tp1636
Rp1637
sb(dp1638
sg8
(g9
(lp1639
g11
tp1640
Rp1641
(dp1642
g15
I413
sg16
g0
(g17
g2
Ntp1643
Rp1644
(dp1645
g21
I00
sg22
g23
sbsg24
I370
sg25
g26
(S'\x07\xdc\x07\x0c\x0c\x0b\x1a\x05\x0c\x07'
p1646
g29
tp1647
Rp1648
sb(dp1649
sg8
(g9
(lp1650
g11
tp1651
Rp1652
(dp1653
g15
I178
sg16
g0
(g17
g2
Ntp1654
Rp1655
(dp1656
g21
I00
sg22
g23
sbsg24
I373
sg25
g26
(S'\x07\xdc\x07\x0c\x0c\x0b\x1a\x0bw\x03'
p1657
g29
tp1658
Rp1659
sb(dp1660
sg8
(g9
(lp1661
g11
tp1662
Rp1663
(dp1664
g15
I235
sg16
g0
(g17
g2
Ntp1665
Rp1666
(dp1667
g21
I00
sg22
g23
sbsg24
I374
sg25
g26
(S'\x07\xdc\x07\x0c\x0c\x0b\x1a\x0c\xca%'
p1668
g29
tp1669
Rp1670
sb(dp1671
sg8
(g9
(lp1672
g11
tp1673
Rp1674
(dp1675
g15
I29
sg16
g0
(g17
g2
Ntp1676
Rp1677
(dp1678
g21
I00
sg22
g23
sbsg24
I375
sg25
g26
(S'\x07\xdc\x07\x0c\x0c\x0b\x1a\r\xddc'
p1679
g29
tp1680
Rp1681
sb(dp1682
sg8
(g9
(lp1683
g11
tp1684
Rp1685
(dp1686
g15
I164
sg16
g0
(g17
g2
Ntp1687
Rp1688
(dp1689
g21
I00
sg22
g23
sbsg24
I376
sg25
g26
(S'\x07\xdc\x07\x0c\x0c\x0b\x1a\x0f\x08\xb1'
p1690
g29
tp1691
Rp1692
sb(dp1693
sg8
(g9
(lp1694
g11
tp1695
Rp1696
(dp1697
g15
I207
sg16
g0
(g17
g2
Ntp1698
Rp1699
(dp1700
g21
I00
sg22
g23
sbsg24
I377
sg25
g26
(S'\x07\xdc\x07\x0c\x0c\x0b\x1b\x01!\xd6'
p1701
g29
tp1702
Rp1703
sb(dp1704
sg8
(g9
(lp1705
g11
tp1706
Rp1707
(dp1708
g15
I372
sg16
g0
(g17
g2
Ntp1709
Rp1710
(dp1711
g21
I00
sg22
g23
sbsg24
I378
sg25
g26
(S'\x07\xdc\x07\x0c\x0c\x0b\x1b\x02\xd8\x16'
p1712
g29
tp1713
Rp1714
sb(dp1715
sg8
(g9
(lp1716
g11
tp1717
Rp1718
(dp1719
g15
I301
sg16
g0
(g17
g2
Ntp1720
Rp1721
(dp1722
g21
I00
sg22
g23
sbsg24
I381
sg25
g26
(S'\x07\xdc\x07\x0c\x0c\x0b\x1b\x07\x00L'
p1723
g29
tp1724
Rp1725
sb(dp1726
sg8
(g9
(lp1727
g11
tp1728
Rp1729
(dp1730
g15
I464
sg16
g0
(g17
g2
Ntp1731
Rp1732
(dp1733
g21
I00
sg22
g23
sbsg24
I382
sg25
g26
(S'\x07\xdc\x07\x0c\x0c\x0b\x1b\x080}'
p1734
g29
tp1735
Rp1736
sb(dp1737
sg8
(g9
(lp1738
g11
tp1739
Rp1740
(dp1741
g15
I381
sg16
g0
(g17
g2
Ntp1742
Rp1743
(dp1744
g21
I00
sg22
g23
sbsg24
I384
sg25
g26
(S'\x07\xdc\x07\x0c\x0c\x0b\x1b\n\x1f\xef'
p1745
g29
tp1746
Rp1747
sb(dp1748
sg8
(g9
(lp1749
g11
tp1750
Rp1751
(dp1752
g15
I291
sg16
g0
(g17
g2
Ntp1753
Rp1754
(dp1755
g21
I00
sg22
g23
sbsg24
I386
sg25
g26
(S'\x07\xdc\x07\x0c\x0c\x0b\x1b\rU2'
p1756
g29
tp1757
Rp1758
sb(dp1759
sg8
(g9
(lp1760
g11
tp1761
Rp1762
(dp1763
g15
I490
sg16
g0
(g17
g2
Ntp1764
Rp1765
(dp1766
g21
I00
sg22
g23
sbsg24
I388
sg25
g26
(S'\x07\xdc\x07\x0c\x0c\x0b\x1c\x01D\x9a'
p1767
g29
tp1768
Rp1769
sb(dp1770
sg8
(g9
(lp1771
g11
tp1772
Rp1773
(dp1774
g15
I222
sg16
g0
(g17
g2
Ntp1775
Rp1776
(dp1777
g21
I00
sg22
g23
sbsg24
I391
sg25
g26
(S'\x07\xdc\x07\x0c\x0c\x0b\x1c\x07\xa4#'
p1778
g29
tp1779
Rp1780
sb(dp1781
sg8
(g9
(lp1782
g11
tp1783
Rp1784
(dp1785
g15
I203
sg16
g0
(g17
g2
Ntp1786
Rp1787
(dp1788
g21
I00
sg22
g23
sbsg24
I396
sg25
g26
(S'\x07\xdc\x07\x0c\x0c\x0b\x1c\x0e\xcf\xcd'
p1789
g29
tp1790
Rp1791
sb(dp1792
sg8
(g9
(lp1793
g11
tp1794
Rp1795
(dp1796
g15
I200
sg16
g0
(g17
g2
Ntp1797
Rp1798
(dp1799
g21
I00
sg22
g23
sbsg24
I397
sg25
g26
(S'\x07\xdc\x07\x0c\x0c\x0b\x1d\x00\x9cL'
p1800
g29
tp1801
Rp1802
sb(dp1803
sg8
(g9
(lp1804
g11
tp1805
Rp1806
(dp1807
g15
I214
sg16
g0
(g17
g2
Ntp1808
Rp1809
(dp1810
g21
I00
sg22
g23
sbsg24
I398
sg25
g26
(S'\x07\xdc\x07\x0c\x0c\x0b\x1d\x01w\xd2'
p1811
g29
tp1812
Rp1813
sb(dp1814
sg8
(g9
(lp1815
g11
tp1816
Rp1817
(dp1818
g15
I127
sg16
g0
(g17
g2
Ntp1819
Rp1820
(dp1821
g21
I00
sg22
g23
sbsg24
I401
sg25
g26
(S'\x07\xdc\x07\x0c\x0c\x0b\x1d\x06h\xee'
p1822
g29
tp1823
Rp1824
sb(dp1825
sg8
(g9
(lp1826
g11
tp1827
Rp1828
(dp1829
g15
I219
sg16
g0
(g17
g2
Ntp1830
Rp1831
(dp1832
g21
I00
sg22
g23
sbsg24
I402
sg25
g26
(S'\x07\xdc\x07\x0c\x0c\x0b\x1d\x07\xe3 '
p1833
g29
tp1834
Rp1835
sb(dp1836
sg8
(g9
(lp1837
g11
tp1838
Rp1839
(dp1840
g15
I147
sg16
g0
(g17
g2
Ntp1841
Rp1842
(dp1843
g21
I00
sg22
g23
sbsg24
I403
sg25
g26
(S'\x07\xdc\x07\x0c\x0c\x0b\x1d\x08\xa4 '
p1844
g29
tp1845
Rp1846
sb(dp1847
sg8
(g9
(lp1848
g11
tp1849
Rp1850
(dp1851
g15
I126
sg16
g0
(g17
g2
Ntp1852
Rp1853
(dp1854
g21
I00
sg22
g23
sbsg24
I405
sg25
g26
(S'\x07\xdc\x07\x0c\x0c\x0b\x1d\x0bY<'
p1855
g29
tp1856
Rp1857
sb(dp1858
sg8
(g9
(lp1859
g11
tp1860
Rp1861
(dp1862
g15
I211
sg16
g0
(g17
g2
Ntp1863
Rp1864
(dp1865
g21
I00
sg22
g23
sbsg24
I409
sg25
g26
(S'\x07\xdc\x07\x0c\x0c\x0b\x1e\x04\x1b\xb5'
p1866
g29
tp1867
Rp1868
sb(dp1869
sg8
(g9
(lp1870
g11
tp1871
Rp1872
(dp1873
g15
I165
sg16
g0
(g17
g2
Ntp1874
Rp1875
(dp1876
g21
I00
sg22
g23
sbsg24
I410
sg25
g26
(S'\x07\xdc\x07\x0c\x0c\x0b\x1e\x05\n!'
p1877
g29
tp1878
Rp1879
sb(dp1880
sg8
(g9
(lp1881
g11
tp1882
Rp1883
(dp1884
g15
I48
sg16
g0
(g17
g2
Ntp1885
Rp1886
(dp1887
g21
I00
sg22
g23
sbsg24
I413
sg25
g26
(S'\x07\xdc\x07\x0c\x0c\x0b\x1e\t\xd5\xb6'
p1888
g29
tp1889
Rp1890
sb(dp1891
sg8
(g9
(lp1892
g11
tp1893
Rp1894
(dp1895
g15
I392
sg16
g0
(g17
g2
Ntp1896
Rp1897
(dp1898
g21
I00
sg22
g23
sbsg24
I414
sg25
g26
(S'\x07\xdc\x07\x0c\x0c\x0b\x1e\x0b\xcc\xc6'
p1899
g29
tp1900
Rp1901
sb(dp1902
sg8
(g9
(lp1903
g11
tp1904
Rp1905
(dp1906
g15
I105
sg16
g0
(g17
g2
Ntp1907
Rp1908
(dp1909
g21
I00
sg22
g23
sbsg24
I420
sg25
g26
(S'\x07\xdc\x07\x0c\x0c\x0b\x1f\x05\xaf\xb2'
p1910
g29
tp1911
Rp1912
sb(dp1913
sg8
(g9
(lp1914
g11
tp1915
Rp1916
(dp1917
g15
I465
sg16
g0
(g17
g2
Ntp1918
Rp1919
(dp1920
g21
I00
sg22
g23
sbsg24
I421
sg25
g26
(S'\x07\xdc\x07\x0c\x0c\x0b\x1f\x07B9'
p1921
g29
tp1922
Rp1923
sb(dp1924
sg8
(g9
(lp1925
g11
tp1926
Rp1927
(dp1928
g15
I490
sg16
g0
(g17
g2
Ntp1929
Rp1930
(dp1931
g21
I00
sg22
g23
sbsg24
I423
sg25
g26
(S'\x07\xdc\x07\x0c\x0c\x0b\x1f\t\xae!'
p1932
g29
tp1933
Rp1934
sb(dp1935
sg8
(g9
(lp1936
g11
tp1937
Rp1938
(dp1939
g15
I42
sg16
g0
(g17
g2
Ntp1940
Rp1941
(dp1942
g21
I00
sg22
g23
sbsg24
I425
sg25
g26
(S'\x07\xdc\x07\x0c\x0c\x0b\x1f\x0c\x99r'
p1943
g29
tp1944
Rp1945
sb(dp1946
sg8
(g9
(lp1947
g11
tp1948
Rp1949
(dp1950
g15
I448
sg16
g0
(g17
g2
Ntp1951
Rp1952
(dp1953
g21
I00
sg22
g23
sbsg24
I426
sg25
g26
(S'\x07\xdc\x07\x0c\x0c\x0b\x1f\x0e\x18j'
p1954
g29
tp1955
Rp1956
sb(dp1957
sg8
(g9
(lp1958
g11
tp1959
Rp1960
(dp1961
g15
I477
sg16
g0
(g17
g2
Ntp1962
Rp1963
(dp1964
g21
I00
sg22
g23
sbsg24
I428
sg25
g26
(S'\x07\xdc\x07\x0c\x0c\x0b \x01W\xce'
p1965
g29
tp1966
Rp1967
sb(dp1968
sg8
(g9
(lp1969
g11
tp1970
Rp1971
(dp1972
g15
I313
sg16
g0
(g17
g2
Ntp1973
Rp1974
(dp1975
g21
I00
sg22
g23
sbsg24
I433
sg25
g26
(S'\x07\xdc\x07\x0c\x0c\x0b \nl\xbb'
p1976
g29
tp1977
Rp1978
sb(dp1979
sg8
(g9
(lp1980
g11
tp1981
Rp1982
(dp1983
g15
I205
sg16
g0
(g17
g2
Ntp1984
Rp1985
(dp1986
g21
I00
sg22
g23
sbsg24
I434
sg25
g26
(S'\x07\xdc\x07\x0c\x0c\x0b \x0b~\x19'
p1987
g29
tp1988
Rp1989
sb(dp1990
sg8
(g9
(lp1991
g11
tp1992
Rp1993
(dp1994
g15
I463
sg16
g0
(g17
g2
Ntp1995
Rp1996
(dp1997
g21
I00
sg22
g23
sbsg24
I436
sg25
g26
(S'\x07\xdc\x07\x0c\x0c\x0b \x0e\xa7\xaa'
p1998
g29
tp1999
Rp2000
sb(dp2001
sg8
(g9
(lp2002
g11
tp2003
Rp2004
(dp2005
g15
I118
sg16
g0
(g17
g2
Ntp2006
Rp2007
(dp2008
g21
I00
sg22
g23
sbsg24
I447
sg25
g26
(S'\x07\xdc\x07\x0c\x0c\x0b"\x02K\x1b'
p2009
g29
tp2010
Rp2011
sb(dp2012
sg8
(g9
(lp2013
g11
tp2014
Rp2015
(dp2016
g15
I404
sg16
g0
(g17
g2
Ntp2017
Rp2018
(dp2019
g21
I00
sg22
g23
sbsg24
I451
sg25
g26
(S'\x07\xdc\x07\x0c\x0c\x0b"\x08=n'
p2020
g29
tp2021
Rp2022
sb(dp2023
sg8
(g9
(lp2024
g11
tp2025
Rp2026
(dp2027
g15
I368
sg16
g0
(g17
g2
Ntp2028
Rp2029
(dp2030
g21
I00
sg22
g23
sbsg24
I456
sg25
g26
(S'\x07\xdc\x07\x0c\x0c\x0b#\x00\x99n'
p2031
g29
tp2032
Rp2033
sb(dp2034
sg8
(g9
(lp2035
g11
tp2036
Rp2037
(dp2038
g15
I438
sg16
g0
(g17
g2
Ntp2039
Rp2040
(dp2041
g21
I00
sg22
g23
sbsg24
I459
sg25
g26
(S'\x07\xdc\x07\x0c\x0c\x0b#\x05\xb3\xf1'
p2042
g29
tp2043
Rp2044
sb(dp2045
sg8
(g9
(lp2046
g11
tp2047
Rp2048
(dp2049
g15
I154
sg16
g0
(g17
g2
Ntp2050
Rp2051
(dp2052
g21
I00
sg22
g23
sbsg24
I466
sg25
g26
(S'\x07\xdc\x07\x0c\x0c\x0b$\x02\xaf\xef'
p2053
g29
tp2054
Rp2055
sb(dp2056
sg8
(g9
(lp2057
g11
tp2058
Rp2059
(dp2060
g15
I251
sg16
g0
(g17
g2
Ntp2061
Rp2062
(dp2063
g21
I00
sg22
g23
sbsg24
I467
sg25
g26
(S'\x07\xdc\x07\x0c\x0c\x0b$\x04\x0f\xcd'
p2064
g29
tp2065
Rp2066
sb(dp2067
sg8
(g9
(lp2068
g11
tp2069
Rp2070
(dp2071
g15
I104
sg16
g0
(g17
g2
Ntp2072
Rp2073
(dp2074
g21
I00
sg22
g23
sbsg24
I469
sg25
g26
(S'\x07\xdc\x07\x0c\x0c\x0b$\x06\xa2\xeb'
p2075
g29
tp2076
Rp2077
sb(dp2078
sg8
(g9
(lp2079
g11
tp2080
Rp2081
(dp2082
g15
I481
sg16
g0
(g17
g2
Ntp2083
Rp2084
(dp2085
g21
I00
sg22
g23
sbsg24
I471
sg25
g26
(S'\x07\xdc\x07\x0c\x0c\x0b$\n\x13\xe0'
p2086
g29
tp2087
Rp2088
sb(dp2089
sg8
(g9
(lp2090
g11
tp2091
Rp2092
(dp2093
g15
I103
sg16
g0
(g17
g2
Ntp2094
Rp2095
(dp2096
g21
I00
sg22
g23
sbsg24
I472
sg25
g26
(S'\x07\xdc\x07\x0c\x0c\x0b$\x0b\x89\xe8'
p2097
g29
tp2098
Rp2099
sb(dp2100
sg8
(g9
(lp2101
g11
tp2102
Rp2103
(dp2104
g15
I360
sg16
g0
(g17
g2
Ntp2105
Rp2106
(dp2107
g21
I00
sg22
g23
sbsg24
I473
sg25
g26
(S'\x07\xdc\x07\x0c\x0c\x0b$\x0c\xe1\xf1'
p2108
g29
tp2109
Rp2110
sb(dp2111
sg8
(g9
(lp2112
g11
tp2113
Rp2114
(dp2115
g15
I74
sg16
g0
(g17
g2
Ntp2116
Rp2117
(dp2118
g21
I00
sg22
g23
sbsg24
I474
sg25
g26
(S'\x07\xdc\x07\x0c\x0c\x0b$\r\xc8`'
p2119
g29
tp2120
Rp2121
sb(dp2122
sg8
(g9
(lp2123
g11
tp2124
Rp2125
(dp2126
g15
I459
sg16
g0
(g17
g2
Ntp2127
Rp2128
(dp2129
g21
I00
sg22
g23
sbsg24
I476
sg25
g26
(S'\x07\xdc\x07\x0c\x0c\x0b%\x01@A'
p2130
g29
tp2131
Rp2132
sb(dp2133
sg8
(g9
(lp2134
g11
tp2135
Rp2136
(dp2137
g15
I66
sg16
g0
(g17
g2
Ntp2138
Rp2139
(dp2140
g21
I00
sg22
g23
sbsg24
I477
sg25
g26
(S'\x07\xdc\x07\x0c\x0c\x0b%\x02$\xdb'
p2141
g29
tp2142
Rp2143
sb(dp2144
sg8
(g9
(lp2145
g11
tp2146
Rp2147
(dp2148
g15
I404
sg16
g0
(g17
g2
Ntp2149
Rp2150
(dp2151
g21
I00
sg22
g23
sbsg24
I478
sg25
g26
(S'\x07\xdc\x07\x0c\x0c\x0b%\x03Z/'
p2152
g29
tp2153
Rp2154
sb(dp2155
sg8
(g9
(lp2156
g11
tp2157
Rp2158
(dp2159
g15
I231
sg16
g0
(g17
g2
Ntp2160
Rp2161
(dp2162
g21
I00
sg22
g23
sbsg24
I483
sg25
g26
(S'\x07\xdc\x07\x0c\x0c\x0b%\x0b%\x12'
p2163
g29
tp2164
Rp2165
sb(dp2166
sg8
(g9
(lp2167
g11
tp2168
Rp2169
(dp2170
g15
I57
sg16
g0
(g17
g2
Ntp2171
Rp2172
(dp2173
g21
I00
sg22
g23
sbsg24
I485
sg25
g26
(S'\x07\xdc\x07\x0c\x0c\x0b%\x0e\xf5\xcc'
p2174
g29
tp2175
Rp2176
sb(dp2177
sg8
(g9
(lp2178
g11
tp2179
Rp2180
(dp2181
g15
I389
sg16
g0
(g17
g2
Ntp2182
Rp2183
(dp2184
g21
I00
sg22
g23
sbsg24
I491
sg25
g26
(S'\x07\xdc\x07\x0c\x0c\x0b&\t\x91\x8a'
p2185
g29
tp2186
Rp2187
sb(dp2188
sg8
(g9
(lp2189
g11
tp2190
Rp2191
(dp2192
g15
I449
sg16
g0
(g17
g2
Ntp2193
Rp2194
(dp2195
g21
I00
sg22
g23
sbsg24
I492
sg25
g26
(S'\x07\xdc\x07\x0c\x0c\x0b&\n\x92\xd6'
p2196
g29
tp2197
Rp2198
sb(dp2199
sg8
(g9
(lp2200
g11
tp2201
Rp2202
(dp2203
g15
I103
sg16
g0
(g17
g2
Ntp2204
Rp2205
(dp2206
g21
I00
sg22
g23
sbsg24
I493
sg25
g26
(S'\x07\xdc\x07\x0c\x0c\x0b&\x0c\x91n'
p2207
g29
tp2208
Rp2209
sb(dp2210
sg8
(g9
(lp2211
g11
tp2212
Rp2213
(dp2214
g15
I383
sg16
g0
(g17
g2
Ntp2215
Rp2216
(dp2217
g21
I00
sg22
g23
sbsg24
I494
sg25
g26
(S'\x07\xdc\x07\x0c\x0c\x0b&\r\xcf\x8a'
p2218
g29
tp2219
Rp2220
sb(dp2221
sg8
(g9
(lp2222
g11
tp2223
Rp2224
(dp2225
g15
I92
sg16
g0
(g17
g2
Ntp2226
Rp2227
(dp2228
g21
I00
sg22
g23
sbsg24
I495
sg25
g26
(S'\x07\xdc\x07\x0c\x0c\x0b&\x0e\xe4\xbb'
p2229
g29
tp2230
Rp2231
sb(dp2232
sg8
(g9
(lp2233
g11
tp2234
Rp2235
(dp2236
g15
I372
sg16
g0
(g17
g2
Ntp2237
Rp2238
(dp2239
g21
I00
sg22
g23
sbsg24
I497
sg25
g26
(S"\x07\xdc\x07\x0c\x0c\x0b'\x03\xc4\x8b"
p2240
g29
tp2241
Rp2242
sb(dp2243
sg8
(g9
(lp2244
g11
tp2245
Rp2246
(dp2247
g15
I380
sg16
g0
(g17
g2
Ntp2248
Rp2249
(dp2250
g21
I00
sg22
g23
sbsg24
I499
sg25
g26
(S"\x07\xdc\x07\x0c\x0c\x0b'\x07t\xfe"
p2251
g29
tp2252
Rp2253
sb(dp2254
sg8
(g9
(lp2255
g11
tp2256
Rp2257
(dp2258
g15
I210
sg16
g0
(g17
g2
Ntp2259
Rp2260
(dp2261
g21
I00
sg22
g23
sbsg24
I500
sg25
g26
(S"\x07\xdc\x07\x0c\x0c\x0b'\t9U"
p2262
g29
tp2263
Rp2264
sb(dp2265
sg8
(g9
(lp2266
g11
tp2267
Rp2268
(dp2269
g15
I100
sg16
g0
(g17
g2
Ntp2270
Rp2271
(dp2272
g21
I00
sg22
g23
sbsg24
I501
sg25
g26
(S"\x07\xdc\x07\x0c\x0c\x0b'\n\x1a\xb8"
p2273
g29
tp2274
Rp2275
sb(dp2276
sg8
(g9
(lp2277
g11
tp2278
Rp2279
(dp2280
g15
I427
sg16
g0
(g17
g2
Ntp2281
Rp2282
(dp2283
g21
I00
sg22
g23
sbsg24
I504
sg25
g26
(S'\x07\xdc\x07\x0c\x0c\x0b(\x00\x10e'
p2284
g29
tp2285
Rp2286
sb(dp2287
sg8
(g9
(lp2288
g11
tp2289
Rp2290
(dp2291
g15
I376
sg16
g0
(g17
g2
Ntp2292
Rp2293
(dp2294
g21
I00
sg22
g23
sbsg24
I506
sg25
g26
(S'\x07\xdc\x07\x0c\x0c\x0b(\x02\xd7\x1f'
p2295
g29
tp2296
Rp2297
sb(dp2298
sg8
(g9
(lp2299
g11
tp2300
Rp2301
(dp2302
g15
I214
sg16
g0
(g17
g2
Ntp2303
Rp2304
(dp2305
g21
I00
sg22
g23
sbsg24
I507
sg25
g26
(S'\x07\xdc\x07\x0c\x0c\x0b(\x04\x83-'
p2306
g29
tp2307
Rp2308
sb(dp2309
sg8
(g9
(lp2310
g11
tp2311
Rp2312
(dp2313
g15
I64
sg16
g0
(g17
g2
Ntp2314
Rp2315
(dp2316
g21
I00
sg22
g23
sbsg24
I508
sg25
g26
(S'\x07\xdc\x07\x0c\x0c\x0b(\x05\xab '
p2317
g29
tp2318
Rp2319
sb(dp2320
sg8
(g9
(lp2321
g11
tp2322
Rp2323
(dp2324
g15
I390
sg16
g0
(g17
g2
Ntp2325
Rp2326
(dp2327
g21
I00
sg22
g23
sbsg24
I509
sg25
g26
(S'\x07\xdc\x07\x0c\x0c\x0b(\x07?\xb2'
p2328
g29
tp2329
Rp2330
sb(dp2331
sg8
(g9
(lp2332
g11
tp2333
Rp2334
(dp2335
g15
I389
sg16
g0
(g17
g2
Ntp2336
Rp2337
(dp2338
g21
I00
sg22
g23
sbsg24
I510
sg25
g26
(S'\x07\xdc\x07\x0c\x0c\x0b(\x08\xc02'
p2339
g29
tp2340
Rp2341
sb(dp2342
sg8
(g9
(lp2343
g11
tp2344
Rp2345
(dp2346
g15
I237
sg16
g0
(g17
g2
Ntp2347
Rp2348
(dp2349
g21
I00
sg22
g23
sbsg24
I511
sg25
g26
(S'\x07\xdc\x07\x0c\x0c\x0b(\t\xff\xa8'
p2350
g29
tp2351
Rp2352
sb(dp2353
ssS'graph'
p2354
(dp2355
sS'edge'
p2356
(dp2357
g13
(dp2358
g1179
(dp2359
S'weight'
p2360
F0.0
ssg123
(dp2361
g2360
F0.0
sssg35
(dp2362
g1839
(dp2363
g2360
F0.0
sssg46
(dp2364
g464
(dp2365
g2360
F0.0
ssg387
(dp2366
g2360
F0.0
sssg57
(dp2367
g2224
(dp2368
g2360
F0.33333333333333337
sssg68
(dp2369
g1938
(dp2370
g2360
F0.33333333333333337
ssg959
(dp2371
g2360
F0.33333333333333337
sssg79
(dp2372
g761
(dp2373
g2360
F0.4
sssg90
(dp2374
g673
(dp2375
g2360
F0.33333333333333337
sssg101
(dp2376
g2026
(dp2377
g2360
F0.33333333333333337
sssg112
(dp2378
g1432
(dp2379
g2360
F0.33333333333333337
sssg123
(dp2380
g13
g2361
ssg134
(dp2381
g2015
(dp2382
g2360
F0.0
sssg145
(dp2383
g343
(dp2384
g2360
F0.33333333333333337
sssg156
(dp2385
g2323
(dp2386
g2360
F0.33333333333333337
sssg167
(dp2387
g662
(dp2388
g2360
F0.0
ssg1311
(dp2389
g2360
F0.0
ssg519
(dp2390
g2360
F0.0
sssg178
(dp2391
g1883
(dp2392
g2360
F0.33333333333333337
sssg189
(dp2393
g1322
(dp2394
g2360
F0.0
ssg1256
(dp2395
g2360
F0.0
sssg200
(dp2396
g915
(dp2397
g2360
F0.0
ssg2125
(dp2398
g2360
F0.0
sssg211
(dp2399
g398
(dp2400
g2360
F0.33333333333333337
sssg222
(dp2401
g376
(dp2402
g2360
F0.4
sssg233
(dp2403
g266
(dp2404
g2360
F0.0
sssg244
(dp2405
g926
(dp2406
g2360
F0.33333333333333337
ssg2334
(dp2407
g2360
F0.0
sssg255
(dp2408
g277
(dp2409
g2360
F0.0
sssg266
(dp2410
g233
g2404
ssg277
(dp2411
g255
g2409
ssg288
(dp2412
g1608
(dp2413
g2360
F0.0
ssg1476
(dp2414
g2360
F0.0
ssg1168
(dp2415
g2360
F0.0
sssg299
(dp2416
g2169
(dp2417
g2360
F0.0
sssg310
(dp2418
g772
(dp2419
g2360
F0.33333333333333337
sssg321
(dp2420
g1542
(dp2421
g2360
F0.0
sssg332
(dp2422
g552
(dp2423
g2360
F0.4
sssg343
(dp2424
g145
g2384
ssg354
(dp2425
g1894
(dp2426
g2360
F0.0
ssg1927
(dp2427
g2360
F0.0
sssg365
(dp2428
g717
(dp2429
g2360
F0.0
ssg2268
(dp2430
g2360
F0.0
sssg376
(dp2431
g222
g2402
sg1784
(dp2432
g2360
F0.33333333333333337
ssg1355
(dp2433
g2360
F0.33333333333333337
ssg1003
(dp2434
g2360
F0.0
sssg387
(dp2435
g46
g2366
ssg398
(dp2436
g211
g2400
ssg409
(dp2437
g1058
(dp2438
g2360
F0.0
ssg1113
(dp2439
g2360
F0.0
sssg420
(dp2440
g783
(dp2441
g2360
F0.33333333333333337
sssg431
(dp2442
g2235
(dp2443
g2360
F0.25
sssg442
(dp2444
g574
(dp2445
g2360
F0.33333333333333337
ssg1289
(dp2446
g2360
F0.4
sssg453
(dp2447
g1025
(dp2448
g2360
F0.33333333333333337
sssg464
(dp2449
g46
g2365
ssg475
(dp2450
g1652
(dp2451
g2360
F0.33333333333333337
sssg486
(dp2452
g2037
(dp2453
g2360
F0.0
sssg497
(dp2454
g1861
(dp2455
g2360
F0.0
ssg1410
(dp2456
g2360
F0.0
ssg2213
(dp2457
g2360
F0.0
sssg508
(dp2458
g1597
(dp2459
g2360
F0.4
sssg519
(dp2460
g167
g2390
ssg530
(dp2461
g2092
(dp2462
g2360
F0.33333333333333337
sssg541
(dp2463
g1443
(dp2464
g2360
F0.0
ssg1091
(dp2465
g2360
F0.0
ssg728
(dp2466
g2360
F0.0
sssg552
(dp2467
g332
g2423
ssg563
(dp2468
g948
(dp2469
g2360
F0.4
sssg574
(dp2470
g442
g2445
ssg585
(dp2471
g1498
(dp2472
g2360
F0.0
ssg684
(dp2473
g2360
F0.0
sssg596
(dp2474
g1949
(dp2475
g2360
F0.0
ssg937
(dp2476
g2360
F0.0
ssg904
(dp2477
g2360
F0.0
ssg1267
(dp2478
g2360
F0.0
sssg607
(dp2479
g838
(dp2480
g2360
F0.33333333333333337
sssg618
(dp2481
g1212
(dp2482
g2360
F0.0
ssg1828
(dp2483
g2360
F0.0
sssg629
(dp2484
g1949
(dp2485
g2360
F0.0
sssg640
(dp2486
g1696
(dp2487
g2360
F0.0
ssg1707
(dp2488
g2360
F0.0
ssg1795
(dp2489
g2360
F0.0
ssg871
(dp2490
g2360
F0.0
sssg651
(dp2491
g1509
(dp2492
g2360
F0.4
sssg662
(dp2493
g167
g2388
ssg673
(dp2494
g90
g2375
sg1575
(dp2495
g2360
F0.33333333333333337
sssg684
(dp2496
g585
g2473
ssg695
(dp2497
g948
(dp2498
g2360
F0.33333333333333337
sssg706
(dp2499
g1520
(dp2500
g2360
F0.0
sssg717
(dp2501
g365
g2429
ssg728
(dp2502
g541
g2466
ssg739
(dp2503
g1718
(dp2504
g2360
F0.33333333333333337
sssg750
(dp2505
g1696
(dp2506
g2360
F0.0
sssg761
(dp2507
g79
g2373
ssg772
(dp2508
g310
g2419
ssg783
(dp2509
g420
g2441
sg1531
(dp2510
g2360
F0.33333333333333337
sssg794
(dp2511
g2312
(dp2512
g2360
F0.33333333333333337
ssg1036
(dp2513
g2360
F0.33333333333333337
sssg805
(dp2514
g1245
(dp2515
g2360
F0.0
sssg816
(dp2516
g1674
(dp2517
g2360
F0.33333333333333337
sssg827
(dp2518
g1905
(dp2519
g2360
F0.4
sssg838
(dp2520
g1102
(dp2521
g2360
F0.33333333333333337
ssg607
g2480
ssg849
(dp2522
g1014
(dp2523
g2360
F0.0
ssg1278
(dp2524
g2360
F0.0
ssg1080
(dp2525
g2360
F0.0
sssg860
(dp2526
g1564
(dp2527
g2360
F0.33333333333333337
sssg871
(dp2528
g640
g2490
ssg882
(dp2529
g2312
(dp2530
g2360
F0.33333333333333337
sssg893
(dp2531
g2191
(dp2532
g2360
F0.4
sssg904
(dp2533
g1630
(dp2534
g2360
F0.0
ssg596
g2477
ssg915
(dp2535
g200
g2397
ssg926
(dp2536
g244
g2406
ssg937
(dp2537
g596
g2476
sg2180
(dp2538
g2360
F0.0
sssg948
(dp2539
g563
g2469
sg695
g2498
ssg959
(dp2540
g68
g2371
ssg970
(dp2541
g1960
(dp2542
g2360
F0.33333333333333337
sssg981
(dp2543
g1223
(dp2544
g2360
F0.0
ssg1069
(dp2545
g2360
F0.0
ssg1487
(dp2546
g2360
F0.0
ssg2136
(dp2547
g2360
F0.0
sssg992
(dp2548
g1872
(dp2549
g2360
F0.0
sssg1003
(dp2550
g376
g2434
ssg1014
(dp2551
g849
g2523
ssg1025
(dp2552
g453
g2448
ssg1036
(dp2553
g794
g2513
sg2081
(dp2554
g2360
F0.33333333333333337
sssg1047
(dp2555
g2279
(dp2556
g2360
F0.0
ssg1377
(dp2557
g2360
F0.0
sssg1058
(dp2558
g409
g2438
ssg1069
(dp2559
g981
g2545
ssg1080
(dp2560
g849
g2525
ssg1091
(dp2561
g541
g2465
ssg1102
(dp2562
g838
g2521
ssg1113
(dp2563
g409
g2439
ssg1124
(dp2564
g1388
(dp2565
g2360
F0.4
sssg1135
(dp2566
g2114
(dp2567
g2360
F0.0
sssg1146
(dp2568
g1971
(dp2569
g2360
F0.33333333333333337
sssg1157
(dp2570
g2235
(dp2571
g2360
F0.33333333333333337
sssg1168
(dp2572
g288
g2415
ssg1179
(dp2573
g13
g2359
ssg1190
(dp2574
g1366
(dp2575
g2360
F0.33333333333333337
sssg1201
(dp2576
g1619
(dp2577
g2360
F0.0
ssg1421
(dp2578
g2360
F0.0
ssg1729
(dp2579
g2360
F0.0
ssg1916
(dp2580
g2360
F0.0
sssg1212
(dp2581
g618
g2482
ssg1223
(dp2582
g981
g2544
ssg1234
(dp2583
g1685
(dp2584
g2360
F0.4
sssg1245
(dp2585
g805
g2515
ssg1256
(dp2586
g189
g2395
ssg1267
(dp2587
g596
g2478
sg2257
(dp2588
g2360
F0.0
sssg1278
(dp2589
g849
g2524
ssg1289
(dp2590
g442
g2446
ssg1300
(dp2591
g2103
(dp2592
g2360
F0.0
sssg1311
(dp2593
g167
g2389
ssg1322
(dp2594
g189
g2394
ssg1333
(dp2595
g2235
(dp2596
g2360
F0.4
sssg1344
(dp2597
g1641
(dp2598
g2360
F0.33333333333333337
sssg1355
(dp2599
g376
g2433
ssg1366
(dp2600
g1784
(dp2601
g2360
F0.33333333333333337
ssg1190
g2575
ssg1377
(dp2602
g1047
g2557
ssg1388
(dp2603
g1124
g2565
ssg1399
(dp2604
g1553
(dp2605
g2360
F0.0
sssg1410
(dp2606
g497
g2456
ssg1421
(dp2607
g1201
g2578
ssg1432
(dp2608
g112
g2379
ssg1443
(dp2609
g541
g2464
ssg1454
(dp2610
g1850
(dp2611
g2360
F0.33333333333333337
sssg1465
(dp2612
g2070
(dp2613
g2360
F0.4
sssg1476
(dp2614
g288
g2414
ssg1487
(dp2615
g981
g2546
ssg1498
(dp2616
g585
g2472
ssg1509
(dp2617
g651
g2492
ssg1520
(dp2618
g706
g2500
ssg1531
(dp2619
g783
g2510
ssg1542
(dp2620
g321
g2421
ssg1553
(dp2621
g1399
g2605
ssg1564
(dp2622
g860
g2527
ssg1575
(dp2623
g673
g2495
ssg1586
(dp2624
g2158
(dp2625
g2360
F0.4
sssg1597
(dp2626
g508
g2459
ssg1608
(dp2627
g288
g2413
ssg1619
(dp2628
g1201
g2577
ssg1630
(dp2629
g904
g2534
ssg1641
(dp2630
g1344
g2598
ssg1652
(dp2631
g475
g2451
ssg1663
(dp2632
g2290
(dp2633
g2360
F0.33333333333333337
sssg1674
(dp2634
g1938
(dp2635
g2360
F0.33333333333333337
ssg816
g2517
ssg1685
(dp2636
g1234
g2584
ssg1696
(dp2637
g640
g2487
sg750
g2506
ssg1707
(dp2638
g640
g2488
ssg1718
(dp2639
g739
g2504
sg2048
(dp2640
g2360
F0.33333333333333337
sssg1729
(dp2641
g1201
g2579
ssg1740
(dp2642
g1762
(dp2643
g2360
F0.4
sssg1751
(dp2644
g2059
(dp2645
g2360
F0.0
ssg1993
(dp2646
g2360
F0.33333333333333337
sssg1762
(dp2647
g1740
g2643
ssg1773
(dp2648
g2301
(dp2649
g2360
F0.0
ssg2345
(dp2650
g2360
F0.33333333333333337
sssg1784
(dp2651
g376
g2432
sg1366
g2601
ssg1795
(dp2652
g640
g2489
ssg1806
(dp2653
g2323
(dp2654
g2360
F0.25
sssg1817
(dp2655
g2202
(dp2656
g2360
F0.33333333333333337
ssg2004
(dp2657
g2360
F0.33333333333333337
sssg1828
(dp2658
g618
g2483
ssg1839
(dp2659
g35
g2363
ssg1850
(dp2660
g1454
g2611
ssg1861
(dp2661
g497
g2455
ssg1872
(dp2662
g992
g2549
ssg1883
(dp2663
g178
g2392
ssg1894
(dp2664
g354
g2426
ssg1905
(dp2665
g827
g2519
ssg1916
(dp2666
g1201
g2580
ssg1927
(dp2667
g354
g2427
ssg1938
(dp2668
g1674
g2635
sg68
g2370
ssg1949
(dp2669
g596
g2475
sg629
g2485
ssg1960
(dp2670
g970
g2542
ssg1971
(dp2671
g1146
g2569
ssg1982
(dp2672
g2147
(dp2673
g2360
F0.33333333333333337
sssg1993
(dp2674
g1751
g2646
ssg2004
(dp2675
g1817
g2657
ssg2015
(dp2676
g134
g2382
ssg2026
(dp2677
g101
g2377
ssg2037
(dp2678
g486
g2453
ssg2048
(dp2679
g1718
g2640
ssg2059
(dp2680
g1751
g2645
ssg2070
(dp2681
g1465
g2613
ssg2081
(dp2682
g1036
g2554
ssg2092
(dp2683
g530
g2462
ssg2103
(dp2684
g1300
g2592
ssg2114
(dp2685
g1135
g2567
ssg2125
(dp2686
g200
g2398
ssg2136
(dp2687
g981
g2547
ssg2147
(dp2688
g1982
g2673
ssg2158
(dp2689
g1586
g2625
ssg2169
(dp2690
g299
g2417
ssg2180
(dp2691
g937
g2538
ssg2191
(dp2692
g893
g2532
ssg2202
(dp2693
g1817
g2656
ssg2213
(dp2694
g497
g2457
ssg2224
(dp2695
g57
g2368
ssg2235
(dp2696
g431
g2443
sg1333
g2596
sg1157
g2571
ssg2246
(dp2697
g2312
(dp2698
g2360
F0.25
sssg2257
(dp2699
g1267
g2588
ssg2268
(dp2700
g365
g2430
ssg2279
(dp2701
g1047
g2556
ssg2290
(dp2702
g1663
g2633
ssg2301
(dp2703
g1773
g2649
ssg2312
(dp2704
g794
g2512
sg882
g2530
sg2246
g2698
ssg2323
(dp2705
g156
g2386
sg1806
g2654
ssg2334
(dp2706
g244
g2407
ssg2345
(dp2707
g1773
g2650
sssS'adj'
p2708
g2357
sb.